; ModuleID = '49/213.c'
source_filename = "49/213.c"
target datalayout = "e-m:e-p270:32:32-p271:32:32-p272:64:64-i64:64-f80:128-n8:16:32:64-S128"
target triple = "x86_64-pc-linux-gnu"

@.str = private unnamed_addr constant [3 x i8] c"%s\00", align 1
@.str.1 = private unnamed_addr constant [3 x i8] c"%c\00", align 1
@.str.2 = private unnamed_addr constant [4 x i8] c"%c\0A\00", align 1

; Function Attrs: noinline nounwind uwtable
define dso_local i32 @main() #0 {
  %1 = alloca i32, align 4
  %2 = alloca i32, align 4
  %3 = alloca i32, align 4
  %4 = alloca i32, align 4
  %5 = alloca i32, align 4
  %6 = alloca [501 x i8], align 16
  %7 = alloca i32, align 4
  store i32 0, i32* %1, align 4
  %8 = call i32 (i8*, ...) @__isoc99_scanf(i8* getelementptr inbounds ([3 x i8], [3 x i8]* @.str, i64 0, i64 0), [501 x i8]* %6)
  %9 = getelementptr inbounds [501 x i8], [501 x i8]* %6, i64 0, i64 0
  %10 = call i64 @strlen(i8* %9) #3
  %11 = trunc i64 %10 to i32
  store i32 %11, i32* %2, align 4
  store i32 1, i32* %4, align 4
  br label %12

12:                                               ; preds = %131, %0
  %13 = load i32, i32* %4, align 4
  %14 = load i32, i32* %2, align 4
  %15 = icmp slt i32 %13, %14
  br i1 %15, label %16, label %134

16:                                               ; preds = %12
  store i32 0, i32* %3, align 4
  br label %17

17:                                               ; preds = %127, %16
  %18 = load i32, i32* %3, align 4
  %19 = load i32, i32* %2, align 4
  %20 = sub nsw i32 %19, 1
  %21 = icmp slt i32 %18, %20
  br i1 %21, label %22, label %130

22:                                               ; preds = %17
  store i32 0, i32* %7, align 4
  %23 = load i32, i32* %4, align 4
  %24 = add nsw i32 %23, 1
  %25 = srem i32 %24, 2
  %26 = icmp eq i32 %25, 0
  br i1 %26, label %27, label %62

27:                                               ; preds = %22
  %28 = load i32, i32* %3, align 4
  store i32 %28, i32* %5, align 4
  br label %29

29:                                               ; preds = %58, %27
  %30 = load i32, i32* %5, align 4
  %31 = load i32, i32* %4, align 4
  %32 = add nsw i32 %31, 1
  %33 = sdiv i32 %32, 2
  %34 = load i32, i32* %3, align 4
  %35 = add nsw i32 %33, %34
  %36 = sub nsw i32 %35, 1
  %37 = icmp sle i32 %30, %36
  br i1 %37, label %38, label %61

38:                                               ; preds = %29
  %39 = load i32, i32* %5, align 4
  %40 = sext i32 %39 to i64
  %41 = getelementptr inbounds [501 x i8], [501 x i8]* %6, i64 0, i64 %40
  %42 = load i8, i8* %41, align 1
  %43 = sext i8 %42 to i32
  %44 = load i32, i32* %3, align 4
  %45 = load i32, i32* %3, align 4
  %46 = add nsw i32 %44, %45
  %47 = load i32, i32* %4, align 4
  %48 = add nsw i32 %46, %47
  %49 = load i32, i32* %5, align 4
  %50 = sub nsw i32 %48, %49
  %51 = sext i32 %50 to i64
  %52 = getelementptr inbounds [501 x i8], [501 x i8]* %6, i64 0, i64 %51
  %53 = load i8, i8* %52, align 1
  %54 = sext i8 %53 to i32
  %55 = icmp ne i32 %43, %54
  br i1 %55, label %56, label %57

56:                                               ; preds = %38
  store i32 1, i32* %7, align 4
  br label %61

57:                                               ; preds = %38
  br label %58

58:                                               ; preds = %57
  %59 = load i32, i32* %5, align 4
  %60 = add nsw i32 %59, 1
  store i32 %60, i32* %5, align 4
  br label %29

61:                                               ; preds = %56, %29
  br label %96

62:                                               ; preds = %22
  %63 = load i32, i32* %3, align 4
  store i32 %63, i32* %5, align 4
  br label %64

64:                                               ; preds = %92, %62
  %65 = load i32, i32* %5, align 4
  %66 = load i32, i32* %4, align 4
  %67 = sdiv i32 %66, 2
  %68 = sub nsw i32 %67, 1
  %69 = load i32, i32* %3, align 4
  %70 = add nsw i32 %68, %69
  %71 = icmp sle i32 %65, %70
  br i1 %71, label %72, label %95

72:                                               ; preds = %64
  %73 = load i32, i32* %5, align 4
  %74 = sext i32 %73 to i64
  %75 = getelementptr inbounds [501 x i8], [501 x i8]* %6, i64 0, i64 %74
  %76 = load i8, i8* %75, align 1
  %77 = sext i8 %76 to i32
  %78 = load i32, i32* %3, align 4
  %79 = load i32, i32* %3, align 4
  %80 = add nsw i32 %78, %79
  %81 = load i32, i32* %4, align 4
  %82 = add nsw i32 %80, %81
  %83 = load i32, i32* %5, align 4
  %84 = sub nsw i32 %82, %83
  %85 = sext i32 %84 to i64
  %86 = getelementptr inbounds [501 x i8], [501 x i8]* %6, i64 0, i64 %85
  %87 = load i8, i8* %86, align 1
  %88 = sext i8 %87 to i32
  %89 = icmp ne i32 %77, %88
  br i1 %89, label %90, label %91

90:                                               ; preds = %72
  store i32 1, i32* %7, align 4
  br label %95

91:                                               ; preds = %72
  br label %92

92:                                               ; preds = %91
  %93 = load i32, i32* %5, align 4
  %94 = add nsw i32 %93, 1
  store i32 %94, i32* %5, align 4
  br label %64

95:                                               ; preds = %90, %64
  br label %96

96:                                               ; preds = %95, %61
  %97 = load i32, i32* %7, align 4
  %98 = icmp eq i32 %97, 0
  br i1 %98, label %99, label %126

99:                                               ; preds = %96
  %100 = load i32, i32* %3, align 4
  store i32 %100, i32* %5, align 4
  br label %101

101:                                              ; preds = %114, %99
  %102 = load i32, i32* %5, align 4
  %103 = load i32, i32* %3, align 4
  %104 = load i32, i32* %4, align 4
  %105 = add nsw i32 %103, %104
  %106 = icmp slt i32 %102, %105
  br i1 %106, label %107, label %117

107:                                              ; preds = %101
  %108 = load i32, i32* %5, align 4
  %109 = sext i32 %108 to i64
  %110 = getelementptr inbounds [501 x i8], [501 x i8]* %6, i64 0, i64 %109
  %111 = load i8, i8* %110, align 1
  %112 = sext i8 %111 to i32
  %113 = call i32 (i8*, ...) @printf(i8* getelementptr inbounds ([3 x i8], [3 x i8]* @.str.1, i64 0, i64 0), i32 %112)
  br label %114

114:                                              ; preds = %107
  %115 = load i32, i32* %5, align 4
  %116 = add nsw i32 %115, 1
  store i32 %116, i32* %5, align 4
  br label %101

117:                                              ; preds = %101
  %118 = load i32, i32* %3, align 4
  %119 = load i32, i32* %4, align 4
  %120 = add nsw i32 %118, %119
  %121 = sext i32 %120 to i64
  %122 = getelementptr inbounds [501 x i8], [501 x i8]* %6, i64 0, i64 %121
  %123 = load i8, i8* %122, align 1
  %124 = sext i8 %123 to i32
  %125 = call i32 (i8*, ...) @printf(i8* getelementptr inbounds ([4 x i8], [4 x i8]* @.str.2, i64 0, i64 0), i32 %124)
  br label %126

126:                                              ; preds = %117, %96
  br label %127

127:                                              ; preds = %126
  %128 = load i32, i32* %3, align 4
  %129 = add nsw i32 %128, 1
  store i32 %129, i32* %3, align 4
  br label %17

130:                                              ; preds = %17
  br label %131

131:                                              ; preds = %130
  %132 = load i32, i32* %4, align 4
  %133 = add nsw i32 %132, 1
  store i32 %133, i32* %4, align 4
  br label %12

134:                                              ; preds = %12
  ret i32 0
}

declare dso_local i32 @__isoc99_scanf(i8*, ...) #1

; Function Attrs: nounwind readonly
declare dso_local i64 @strlen(i8*) #2

declare dso_local i32 @printf(i8*, ...) #1


!llvm.module.flags = !{!0}
!llvm.ident = !{!1}

!0 = !{i32 1, !"wchar_size", i32 4}
!1 = !{!"clang version 10.0.0-4ubuntu1 "}
